; Function Attrs: mustprogress uwtable
define hidden void @_ZNK3smt7context19display_istatisticsERSo(ptr noundef nonnull align 8 dereferenceable(10544) %0, ptr noundef nonnull align 8 dereferenceable(8) %1) local_unnamed_addr #4 align 2 personality ptr @__gxx_personality_v0 {
  %3 = alloca %class.statistics, align 8
  call void @llvm.lifetime.start.p0(i64 16, ptr nonnull %3) #22
  call void @llvm.memset.p0.i64(ptr noundef nonnull align 8 dereferenceable(16) %3, i8 0, i64 16, i1 false)
  invoke void @_ZNK3smt7context18collect_statisticsER10statistics(ptr noundef nonnull align 8 dereferenceable(10544) %0, ptr noundef nonnull align 8 dereferenceable(16) %3)
          to label %4 unwind label %19

4:                                                ; preds = %2
  invoke void @_ZNK10statistics16display_internalERSo(ptr noundef nonnull align 8 dereferenceable(16) %3, ptr noundef nonnull align 8 dereferenceable(8) %1)
          to label %5 unwind label %19

5:                                                ; preds = %4
  %6 = getelementptr inbounds nuw i8, ptr %3, i64 8
  %7 = load ptr, ptr %6, align 8, !tbaa !663
  %.not.i.i.i = icmp eq ptr %7, null
  br i1 %.not.i.i.i, label %_ZN6vectorISt4pairIPKcdELb0EjED2Ev.exit.i, label %8

8:                                                ; preds = %5
  %9 = getelementptr inbounds i8, ptr %7, i64 -8
  invoke void @_ZN6memory10deallocateEPv(ptr noundef nonnull %9)
          to label %_ZN6vectorISt4pairIPKcdELb0EjED2Ev.exit.i unwind label %10

10:                                               ; preds = %8
  %11 = landingpad { ptr, i32 }
          catch ptr null
  %12 = extractvalue { ptr, i32 } %11, 0
  call void @__clang_call_terminate(ptr %12) #25
  unreachable

_ZN6vectorISt4pairIPKcdELb0EjED2Ev.exit.i:        ; preds = %8, %5
  %13 = load ptr, ptr %3, align 8, !tbaa !664
  %.not.i.i1.i = icmp eq ptr %13, null
  br i1 %.not.i.i1.i, label %_ZN10statisticsD2Ev.exit, label %14

14:                                               ; preds = %_ZN6vectorISt4pairIPKcdELb0EjED2Ev.exit.i
  %15 = getelementptr inbounds i8, ptr %13, i64 -8
  invoke void @_ZN6memory10deallocateEPv(ptr noundef nonnull %15)
          to label %_ZN10statisticsD2Ev.exit unwind label %16

16:                                               ; preds = %14
  %17 = landingpad { ptr, i32 }
          catch ptr null
  %18 = extractvalue { ptr, i32 } %17, 0
  call void @__clang_call_terminate(ptr %18) #25
  unreachable

_ZN10statisticsD2Ev.exit:                         ; preds = %_ZN6vectorISt4pairIPKcdELb0EjED2Ev.exit.i, %14
  call void @llvm.lifetime.end.p0(i64 16, ptr nonnull %3) #22
  ret void

19:                                               ; preds = %4, %2
  %20 = landingpad { ptr, i32 }
          cleanup
  call void @_ZN10statisticsD2Ev(ptr noundef nonnull align 8 dereferenceable(16) %3) #22
  call void @llvm.lifetime.end.p0(i64 16, ptr nonnull %3) #22
  resume { ptr, i32 } %20
}